Certificate:
    Data:
        Version: 3 (0x2)
        Serial Number: 2 (0x2)
        Signature Algorithm: md5WithRSAEncryption
        Issuer: C=HU, ST=Pest, L=Budapest, O=Ericsson Telecom Hungary, OU=RUST, CN=a99027.eth.ericsson.se/emailAddress=Eduard.Czimbalmos@ericsson.com
        Validity
            Not Before: Jan  8 11:39:44 2004 GMT
            Not After : Jan  7 11:39:44 2005 GMT
        Subject: C=HU, ST=Pest, O=Ericsson Telecom Hungary, OU=RUST, CN=a99027.eth.ericsson.se/emailAddress=Eduard.Czimbalmos@ericsson.com
        Subject Public Key Info:
            Public Key Algorithm: rsaEncryption
            RSA Public Key: (1024 bit)
                Modulus (1024 bit):
                    00:ac:e3:07:4b:97:49:4f:27:35:fd:c5:7f:d1:b5:
                    4a:f4:3c:53:cf:bf:36:31:02:19:e0:6f:8f:a2:34:
                    39:0f:d7:4f:4f:e0:4b:36:dc:5c:ef:3f:a4:fb:60:
                    07:3d:50:50:d5:6f:0e:ce:60:7e:98:ed:de:b9:de:
                    63:60:9b:ec:86:ff:d6:79:34:3f:e7:c2:16:d4:d3:
                    d8:6d:c6:a5:9f:ef:7d:7a:be:25:c1:c5:88:ec:65:
                    0a:ca:c5:16:2b:3d:3d:d8:de:a8:32:b5:c4:9b:5d:
                    9c:25:91:ef:65:9a:3a:9c:80:ea:95:0b:90:b0:9f:
                    75:ba:aa:6d:8a:24:35:54:89
                Exponent: 65537 (0x10001)
        X509v3 extensions:
            X509v3 Basic Constraints: 
                CA:FALSE
            Netscape Comment: 
                OpenSSL Generated Certificate
            X509v3 Subject Key Identifier: 
                C1:32:B9:1E:DC:0C:44:1C:69:7F:AE:6C:85:B6:DA:59:35:0C:D2:E6
            X509v3 Authority Key Identifier: 
                keyid:E5:52:E4:91:CB:97:9B:48:D2:67:A3:49:EE:7E:C3:44:4B:BE:9B:2C
                DirName:/C=HU/ST=Pest/L=Budapest/O=Ericsson Telecom Hungary/OU=RUST/CN=a99027.eth.ericsson.se/emailAddress=Eduard.Czimbalmos@ericsson.com
                serial:00

    Signature Algorithm: md5WithRSAEncryption
        9b:bd:ab:b4:4b:da:df:e1:f9:97:6a:37:ad:34:c8:01:6b:ba:
        20:7a:f3:77:ba:f7:d9:68:8e:f5:e6:82:dd:e3:e1:50:77:b7:
        02:39:12:4c:b9:92:2e:ac:0e:a2:1d:2e:9a:eb:50:fa:df:3e:
        d3:45:57:64:9c:3f:fc:7b:d3:f1:39:ff:68:61:46:cd:68:13:
        5d:71:cf:60:9b:68:2b:87:99:31:54:3d:a9:54:27:c3:f3:eb:
        43:6c:ef:d7:bb:3d:72:f8:5b:13:e6:39:a9:f6:d7:1c:d5:23:
        ca:be:3a:93:d3:39:43:a0:54:e8:29:21:cf:aa:d8:90:88:0a:
        a2:c4
-----BEGIN CERTIFICATE-----
MIIEBjCCA2+gAwIBAgIBAjANBgkqhkiG9w0BAQQFADCBsTELMAkGA1UEBhMCSFUx
DTALBgNVBAgTBFBlc3QxETAPBgNVBAcTCEJ1ZGFwZXN0MSEwHwYDVQQKExhFcmlj
c3NvbiBUZWxlY29tIEh1bmdhcnkxDTALBgNVBAsTBFJVU1QxHzAdBgNVBAMTFmE5
OTAyNy5ldGguZXJpY3Nzb24uc2UxLTArBgkqhkiG9w0BCQEWHkVkdWFyZC5Demlt
YmFsbW9zQGVyaWNzc29uLmNvbTAeFw0wNDAxMDgxMTM5NDRaFw0wNTAxMDcxMTM5
NDRaMIGeMQswCQYDVQQGEwJIVTENMAsGA1UECBMEUGVzdDEhMB8GA1UEChMYRXJp
Y3Nzb24gVGVsZWNvbSBIdW5nYXJ5MQ0wCwYDVQQLEwRSVVNUMR8wHQYDVQQDExZh
OTkwMjcuZXRoLmVyaWNzc29uLnNlMS0wKwYJKoZIhvcNAQkBFh5FZHVhcmQuQ3pp
bWJhbG1vc0Blcmljc3Nvbi5jb20wgZ8wDQYJKoZIhvcNAQEBBQADgY0AMIGJAoGB
AKzjB0uXSU8nNf3Ff9G1SvQ8U8+/NjECGeBvj6I0OQ/XT0/gSzbcXO8/pPtgBz1Q
UNVvDs5gfpjt3rneY2Cb7Ib/1nk0P+fCFtTT2G3GpZ/vfXq+JcHFiOxlCsrFFis9
PdjeqDK1xJtdnCWR72WaOpyA6pULkLCfdbqqbYokNVSJAgMBAAGjggE9MIIBOTAJ
BgNVHRMEAjAAMCwGCWCGSAGG+EIBDQQfFh1PcGVuU1NMIEdlbmVyYXRlZCBDZXJ0
aWZpY2F0ZTAdBgNVHQ4EFgQUwTK5HtwMRBxpf65shbbaWTUM0uYwgd4GA1UdIwSB
1jCB04AU5VLkkcuXm0jSZ6NJ7n7DREu+myyhgbekgbQwgbExCzAJBgNVBAYTAkhV
MQ0wCwYDVQQIEwRQZXN0MREwDwYDVQQHEwhCdWRhcGVzdDEhMB8GA1UEChMYRXJp
Y3Nzb24gVGVsZWNvbSBIdW5nYXJ5MQ0wCwYDVQQLEwRSVVNUMR8wHQYDVQQDExZh
OTkwMjcuZXRoLmVyaWNzc29uLnNlMS0wKwYJKoZIhvcNAQkBFh5FZHVhcmQuQ3pp
bWJhbG1vc0Blcmljc3Nvbi5jb22CAQAwDQYJKoZIhvcNAQEEBQADgYEAm72rtEva
3+H5l2o3rTTIAWu6IHrzd7r32WiO9eaC3ePhUHe3AjkSTLmSLqwOoh0umutQ+t8+
00VXZJw//HvT8Tn/aGFGzWgTXXHPYJtoK4eZMVQ9qVQnw/PrQ2zv17s9cvhbE+Y5
qfbXHNUjyr46k9M5Q6BU6Ckhz6rYkIgKosQ=
-----END CERTIFICATE-----
